; Function Attrs: mustprogress uwtable
define noundef zeroext i1 @_ZNK32pxrInternal_v0_24__pxrReserved__12Usd_PrimData14IsSubComponentEv(ptr noundef nonnull align 8 dereferenceable(64) %0) local_unnamed_addr #0 align 2 personality ptr @__gxx_personality_v0 {
  %2 = alloca %"class.pxrInternal_v0_24__pxrReserved__::TfToken", align 8
  call void @_ZN32pxrInternal_v0_24__pxrReserved__8UsdStage8_GetKindEPKNS_12Usd_PrimDataE(ptr dead_on_unwind nonnull writable sret(%"class.pxrInternal_v0_24__pxrReserved__::TfToken") align 8 %2, ptr noundef nonnull %0)
  %3 = invoke noundef zeroext i1 @_ZN32pxrInternal_v0_24__pxrReserved__12KindRegistry14IsSubComponentERKNS_7TfTokenE(ptr noundef nonnull align 8 dereferenceable(8) %2)
          to label %4 unwind label %12

4:                                                ; preds = %1
  %5 = load ptr, ptr %2, align 8
  %6 = ptrtoint ptr %5 to i64
  %7 = and i64 %6, 7
  %.not.i.i = icmp eq i64 %7, 0
  br i1 %.not.i.i, label %_ZN32pxrInternal_v0_24__pxrReserved__7TfTokenD2Ev.exit, label %8

8:                                                ; preds = %4
  %9 = and i64 %6, -8
  %10 = inttoptr i64 %9 to ptr
  %11 = atomicrmw sub ptr %10, i32 2 release, align 4
  br label %_ZN32pxrInternal_v0_24__pxrReserved__7TfTokenD2Ev.exit

_ZN32pxrInternal_v0_24__pxrReserved__7TfTokenD2Ev.exit: ; preds = %4, %8
  ret i1 %3

12:                                               ; preds = %1
  %13 = landingpad { ptr, i32 }
          cleanup
  %14 = load ptr, ptr %2, align 8
  %15 = ptrtoint ptr %14 to i64
  %16 = and i64 %15, 7
  %.not.i.i2 = icmp eq i64 %16, 0
  br i1 %.not.i.i2, label %_ZN32pxrInternal_v0_24__pxrReserved__7TfTokenD2Ev.exit3, label %17

17:                                               ; preds = %12
  %18 = and i64 %15, -8
  %19 = inttoptr i64 %18 to ptr
  %20 = atomicrmw sub ptr %19, i32 2 release, align 4
  br label %_ZN32pxrInternal_v0_24__pxrReserved__7TfTokenD2Ev.exit3

_ZN32pxrInternal_v0_24__pxrReserved__7TfTokenD2Ev.exit3: ; preds = %12, %17
  resume { ptr, i32 } %13
}